target datalayout = "e-m:e-p270:32:32-p271:32:32-p272:64:64-i64:64-i128:128-f80:128-n8:16:32:64-S128"
target triple = "x86_64-unknown-linux-gnu"

; Function Attrs: mustprogress nounwind uwtable
define hidden noundef zeroext i1 @_ZN4cvc58internal6String7isDigitEj(i32 noundef %character) #5 align 2 {
entry:
  %character.addr = alloca i32, align 4
  store i32 %character, ptr %character.addr, align 4
  %0 = load i32, ptr %character.addr, align 4
  %cmp = icmp ule i32 48, %0
  br i1 %cmp, label %land.rhs, label %land.end

land.rhs:                                         ; preds = %entry
  %1 = load i32, ptr %character.addr, align 4
  %cmp1 = icmp ule i32 %1, 57
  br label %land.end

land.end:                                         ; preds = %land.rhs, %entry
  %2 = phi i1 [ false, %entry ], [ %cmp1, %land.rhs ]
  ret i1 %2
}

; Function Attrs: mustprogress nounwind uwtable
define hidden noundef zeroext i1 @_ZN4cvc58internal6String10isHexDigitEj(i32 noundef %character) #5 align 2 {
entry:
  %character.addr = alloca i32, align 4
  store i32 %character, ptr %character.addr, align 4
  %0 = load i32, ptr %character.addr, align 4
  %call = call noundef zeroext i1 @_ZN4cvc58internal6String7isDigitEj(i32 noundef %0)
  br i1 %call, label %lor.end, label %lor.lhs.false

lor.lhs.false:                                    ; preds = %entry
  %1 = load i32, ptr %character.addr, align 4
  %cmp = icmp ule i32 65, %1
  br i1 %cmp, label %land.lhs.true, label %lor.rhs

land.lhs.true:                                    ; preds = %lor.lhs.false
  %2 = load i32, ptr %character.addr, align 4
  %cmp1 = icmp ule i32 %2, 70
  br i1 %cmp1, label %lor.end, label %lor.rhs

lor.rhs:                                          ; preds = %land.lhs.true, %lor.lhs.false
  %3 = load i32, ptr %character.addr, align 4
  %cmp2 = icmp ule i32 97, %3
  br i1 %cmp2, label %land.rhs, label %land.end

land.rhs:                                         ; preds = %lor.rhs
  %4 = load i32, ptr %character.addr, align 4
  %cmp3 = icmp ule i32 %4, 102
  br label %land.end

land.end:                                         ; preds = %land.rhs, %lor.rhs
  %5 = phi i1 [ false, %lor.rhs ], [ %cmp3, %land.rhs ]
  br label %lor.end

lor.end:                                          ; preds = %land.end, %land.lhs.true, %entry
  %6 = phi i1 [ true, %land.lhs.true ], [ true, %entry ], [ %5, %land.end ]
  ret i1 %6
}