; Function Attrs: mustprogress nofree norecurse nosync nounwind willreturn memory(none) uwtable
define hidden noundef zeroext i1 @_ZN4cvc58internal6String10isHexDigitEj(i32 noundef %character) local_unnamed_addr #6 align 2 {
entry:
  %0 = add i32 %character, -48
  %1 = icmp ult i32 %0, 10
  %2 = add i32 %character, -65
  %or.cond = icmp ult i32 %2, 6
  %or.cond5 = or i1 %1, %or.cond
  br i1 %or.cond5, label %lor.end, label %lor.rhs

lor.rhs:                                          ; preds = %entry
  %3 = add i32 %character, -97
  %4 = icmp ult i32 %3, 6
  br label %lor.end

lor.end:                                          ; preds = %lor.rhs, %entry
  %5 = phi i1 [ true, %entry ], [ %4, %lor.rhs ]
  ret i1 %5
}